; Function Attrs: nounwind uwtable
define void @Bac_ManDeriveFanout(ptr noundef readonly captures(none) %0) local_unnamed_addr #6 {
  %2 = getelementptr i8, ptr %0, i64 36
  %.val5 = load i32, ptr %2, align 4, !tbaa !37
  %.not6 = icmp slt i32 %.val5, 1
  br i1 %.not6, label %.critedge, label %Bac_ManNtk.exit.lr.ph

Bac_ManNtk.exit.lr.ph:                            ; preds = %1
  %3 = getelementptr inbounds nuw i8, ptr %0, i64 40
  br label %Bac_ManNtk.exit

Bac_ManNtk.exit:                                  ; preds = %Bac_ManNtk.exit.lr.ph, %Bac_ManNtk.exit
  %indvars.iv = phi i64 [ 1, %Bac_ManNtk.exit.lr.ph ], [ %indvars.iv.next, %Bac_ManNtk.exit ]
  %4 = load ptr, ptr %3, align 8, !tbaa !42
  %5 = getelementptr inbounds nuw %struct.Bac_Ntk_t_, ptr %4, i64 %indvars.iv
  tail call void @Bac_NtkDeriveFanout(ptr noundef nonnull %5)
  %indvars.iv.next = add nuw nsw i64 %indvars.iv, 1
  %.val = load i32, ptr %2, align 4, !tbaa !37
  %6 = sext i32 %.val to i64
  %.not.not = icmp slt i64 %indvars.iv, %6
  br i1 %.not.not, label %Bac_ManNtk.exit, label %.critedge, !llvm.loop !43

.critedge:                                        ; preds = %Bac_ManNtk.exit, %1
  ret void
}